target datalayout = "e-m:e-p270:32:32-p271:32:32-p272:64:64-i64:64-i128:128-f80:128-n8:16:32:64-S128"
target triple = "x86_64-pc-linux-gnu"

%struct.NSVGparser = type { [128 x %struct.NSVGattrib], i32, ptr, i32, i32, ptr, ptr, ptr, ptr, float, float, float, float, i32, i32, i32, float, i8, i8 }
%struct.NSVGattrib = type { [64 x i8], [6 x float], i32, i32, float, float, float, [64 x i8], [64 x i8], float, float, [8 x float], i32, i8, i8, float, i8, float, i32, float, float, i8, i8, i8 }

; Function Attrs: nounwind uwtable
define internal void @nsvg__addPoint(ptr noundef %0, float noundef %1, float noundef %2) #0 {
  %4 = alloca ptr, align 8
  %5 = alloca float, align 4
  %6 = alloca float, align 4
  store ptr %0, ptr %4, align 8, !tbaa !27
  store float %1, ptr %5, align 4, !tbaa !23
  store float %2, ptr %6, align 4, !tbaa !23
  %7 = load ptr, ptr %4, align 8, !tbaa !27
  %8 = getelementptr inbounds nuw %struct.NSVGparser, ptr %7, i32 0, i32 3
  %9 = load i32, ptr %8, align 8, !tbaa !219
  %10 = add nsw i32 %9, 1
  %11 = load ptr, ptr %4, align 8, !tbaa !27
  %12 = getelementptr inbounds nuw %struct.NSVGparser, ptr %11, i32 0, i32 4
  %13 = load i32, ptr %12, align 4, !tbaa !282
  %14 = icmp sgt i32 %10, %13
  br i1 %14, label %15, label %48

15:                                               ; preds = %3
  %16 = load ptr, ptr %4, align 8, !tbaa !27
  %17 = getelementptr inbounds nuw %struct.NSVGparser, ptr %16, i32 0, i32 4
  %18 = load i32, ptr %17, align 4, !tbaa !282
  %19 = icmp ne i32 %18, 0
  br i1 %19, label %20, label %25

20:                                               ; preds = %15
  %21 = load ptr, ptr %4, align 8, !tbaa !27
  %22 = getelementptr inbounds nuw %struct.NSVGparser, ptr %21, i32 0, i32 4
  %23 = load i32, ptr %22, align 4, !tbaa !282
  %24 = mul nsw i32 %23, 2
  br label %26

25:                                               ; preds = %15
  br label %26

26:                                               ; preds = %25, %20
  %27 = phi i32 [ %24, %20 ], [ 8, %25 ]
  %28 = load ptr, ptr %4, align 8, !tbaa !27
  %29 = getelementptr inbounds nuw %struct.NSVGparser, ptr %28, i32 0, i32 4
  store i32 %27, ptr %29, align 4, !tbaa !282
  %30 = load ptr, ptr %4, align 8, !tbaa !27
  %31 = getelementptr inbounds nuw %struct.NSVGparser, ptr %30, i32 0, i32 2
  %32 = load ptr, ptr %31, align 8, !tbaa !88
  %33 = load ptr, ptr %4, align 8, !tbaa !27
  %34 = getelementptr inbounds nuw %struct.NSVGparser, ptr %33, i32 0, i32 4
  %35 = load i32, ptr %34, align 4, !tbaa !282
  %36 = mul nsw i32 %35, 2
  %37 = sext i32 %36 to i64
  %38 = mul i64 %37, 4
  %39 = call ptr @realloc(ptr noundef %32, i64 noundef %38) #14
  %40 = load ptr, ptr %4, align 8, !tbaa !27
  %41 = getelementptr inbounds nuw %struct.NSVGparser, ptr %40, i32 0, i32 2
  store ptr %39, ptr %41, align 8, !tbaa !88
  %42 = load ptr, ptr %4, align 8, !tbaa !27
  %43 = getelementptr inbounds nuw %struct.NSVGparser, ptr %42, i32 0, i32 2
  %44 = load ptr, ptr %43, align 8, !tbaa !88
  %45 = icmp ne ptr %44, null
  br i1 %45, label %47, label %46

46:                                               ; preds = %26
  br label %75

47:                                               ; preds = %26
  br label %48

48:                                               ; preds = %47, %3
  %49 = load float, ptr %5, align 4, !tbaa !23
  %50 = load ptr, ptr %4, align 8, !tbaa !27
  %51 = getelementptr inbounds nuw %struct.NSVGparser, ptr %50, i32 0, i32 2
  %52 = load ptr, ptr %51, align 8, !tbaa !88
  %53 = load ptr, ptr %4, align 8, !tbaa !27
  %54 = getelementptr inbounds nuw %struct.NSVGparser, ptr %53, i32 0, i32 3
  %55 = load i32, ptr %54, align 8, !tbaa !219
  %56 = mul nsw i32 %55, 2
  %57 = add nsw i32 %56, 0
  %58 = sext i32 %57 to i64
  %59 = getelementptr inbounds float, ptr %52, i64 %58
  store float %49, ptr %59, align 4, !tbaa !23
  %60 = load float, ptr %6, align 4, !tbaa !23
  %61 = load ptr, ptr %4, align 8, !tbaa !27
  %62 = getelementptr inbounds nuw %struct.NSVGparser, ptr %61, i32 0, i32 2
  %63 = load ptr, ptr %62, align 8, !tbaa !88
  %64 = load ptr, ptr %4, align 8, !tbaa !27
  %65 = getelementptr inbounds nuw %struct.NSVGparser, ptr %64, i32 0, i32 3
  %66 = load i32, ptr %65, align 8, !tbaa !219
  %67 = mul nsw i32 %66, 2
  %68 = add nsw i32 %67, 1
  %69 = sext i32 %68 to i64
  %70 = getelementptr inbounds float, ptr %63, i64 %69
  store float %60, ptr %70, align 4, !tbaa !23
  %71 = load ptr, ptr %4, align 8, !tbaa !27
  %72 = getelementptr inbounds nuw %struct.NSVGparser, ptr %71, i32 0, i32 3
  %73 = load i32, ptr %72, align 8, !tbaa !219
  %74 = add nsw i32 %73, 1
  store i32 %74, ptr %72, align 8, !tbaa !219
  br label %75

75:                                               ; preds = %48, %46
  ret void
}

; Function Attrs: nounwind uwtable
define internal void @nsvg__cubicBezTo(ptr noundef %0, float noundef %1, float noundef %2, float noundef %3, float noundef %4, float noundef %5, float noundef %6) #0 {
  %8 = alloca ptr, align 8
  %9 = alloca float, align 4
  %10 = alloca float, align 4
  %11 = alloca float, align 4
  %12 = alloca float, align 4
  %13 = alloca float, align 4
  %14 = alloca float, align 4
  store ptr %0, ptr %8, align 8, !tbaa !27
  store float %1, ptr %9, align 4, !tbaa !23
  store float %2, ptr %10, align 4, !tbaa !23
  store float %3, ptr %11, align 4, !tbaa !23
  store float %4, ptr %12, align 4, !tbaa !23
  store float %5, ptr %13, align 4, !tbaa !23
  store float %6, ptr %14, align 4, !tbaa !23
  %15 = load ptr, ptr %8, align 8, !tbaa !27
  %16 = getelementptr inbounds nuw %struct.NSVGparser, ptr %15, i32 0, i32 3
  %17 = load i32, ptr %16, align 8, !tbaa !219
  %18 = icmp sgt i32 %17, 0
  br i1 %18, label %19, label %29

19:                                               ; preds = %7
  %20 = load ptr, ptr %8, align 8, !tbaa !27
  %21 = load float, ptr %9, align 4, !tbaa !23
  %22 = load float, ptr %10, align 4, !tbaa !23
  call void @nsvg__addPoint(ptr noundef %20, float noundef %21, float noundef %22)
  %23 = load ptr, ptr %8, align 8, !tbaa !27
  %24 = load float, ptr %11, align 4, !tbaa !23
  %25 = load float, ptr %12, align 4, !tbaa !23
  call void @nsvg__addPoint(ptr noundef %23, float noundef %24, float noundef %25)
  %26 = load ptr, ptr %8, align 8, !tbaa !27
  %27 = load float, ptr %13, align 4, !tbaa !23
  %28 = load float, ptr %14, align 4, !tbaa !23
  call void @nsvg__addPoint(ptr noundef %26, float noundef %27, float noundef %28)
  br label %29

29:                                               ; preds = %19, %7
  ret void
}