; Function Attrs: mustprogress nounwind willreturn uwtable
define internal fastcc void @nsvg__cubicBezTo(ptr noundef captures(none) %0, float noundef %1, float noundef %2, float noundef %3, float noundef %4, float noundef %5, float noundef %6) unnamed_addr #7 {
  %8 = getelementptr inbounds nuw i8, ptr %0, i64 39952
  %9 = load i32, ptr %8, align 8, !tbaa !84
  %10 = icmp sgt i32 %9, 0
  br i1 %10, label %11, label %nsvg__addPoint.exit29

11:                                               ; preds = %7
  %12 = getelementptr inbounds nuw i8, ptr %0, i64 39956
  %13 = load i32, ptr %12, align 4, !tbaa !87
  %.not.i = icmp slt i32 %9, %13
  br i1 %.not.i, label %._crit_edge.i, label %14

._crit_edge.i:                                    ; preds = %11
  %.phi.trans.insert.i = getelementptr inbounds nuw i8, ptr %0, i64 39944
  %.pre.i = load ptr, ptr %.phi.trans.insert.i, align 8, !tbaa !80
  br label %._crit_edge18.i

14:                                               ; preds = %11
  %.not16.i = icmp eq i32 %13, 0
  %15 = shl nsw i32 %13, 1
  %spec.select.i = select i1 %.not16.i, i32 8, i32 %15
  store i32 %spec.select.i, ptr %12, align 4, !tbaa !87
  %16 = getelementptr inbounds nuw i8, ptr %0, i64 39944
  %17 = load ptr, ptr %16, align 8, !tbaa !80
  %18 = shl nsw i32 %spec.select.i, 1
  %19 = sext i32 %18 to i64
  %20 = shl nsw i64 %19, 2
  %21 = tail call ptr @realloc(ptr noundef %17, i64 noundef %20) #33
  store ptr %21, ptr %16, align 8, !tbaa !80
  %.not17.i = icmp eq ptr %21, null
  %.pre = load i32, ptr %8, align 8, !tbaa !84
  br i1 %.not17.i, label %nsvg__addPoint.exit, label %._crit_edge18.i

._crit_edge18.i:                                  ; preds = %14, %._crit_edge.i
  %22 = phi i32 [ %9, %._crit_edge.i ], [ %.pre, %14 ]
  %23 = phi ptr [ %.pre.i, %._crit_edge.i ], [ %21, %14 ]
  %24 = shl nsw i32 %22, 1
  %25 = sext i32 %24 to i64
  %26 = getelementptr inbounds float, ptr %23, i64 %25
  store float %1, ptr %26, align 4, !tbaa !28
  %27 = or disjoint i32 %24, 1
  %28 = sext i32 %27 to i64
  %29 = getelementptr inbounds float, ptr %23, i64 %28
  store float %2, ptr %29, align 4, !tbaa !28
  %30 = add nsw i32 %22, 1
  store i32 %30, ptr %8, align 8, !tbaa !84
  br label %nsvg__addPoint.exit

nsvg__addPoint.exit:                              ; preds = %14, %._crit_edge18.i
  %.pre.i18 = phi ptr [ null, %14 ], [ %23, %._crit_edge18.i ]
  %31 = phi i32 [ %.pre, %14 ], [ %30, %._crit_edge18.i ]
  %32 = load i32, ptr %12, align 4, !tbaa !87
  %.not.i10 = icmp slt i32 %31, %32
  br i1 %.not.i10, label %._crit_edge.i16, label %33

33:                                               ; preds = %nsvg__addPoint.exit
  %.not16.i11 = icmp eq i32 %32, 0
  %34 = shl nsw i32 %32, 1
  %spec.select.i12 = select i1 %.not16.i11, i32 8, i32 %34
  store i32 %spec.select.i12, ptr %12, align 4, !tbaa !87
  %35 = getelementptr inbounds nuw i8, ptr %0, i64 39944
  %36 = shl nsw i32 %spec.select.i12, 1
  %37 = sext i32 %36 to i64
  %38 = shl nsw i64 %37, 2
  %39 = tail call ptr @realloc(ptr noundef %.pre.i18, i64 noundef %38) #33
  store ptr %39, ptr %35, align 8, !tbaa !80
  %.not17.i13 = icmp eq ptr %39, null
  %.pre30 = load i32, ptr %8, align 8, !tbaa !84
  br i1 %.not17.i13, label %nsvg__addPoint.exit19, label %._crit_edge.i16

._crit_edge.i16:                                  ; preds = %33, %nsvg__addPoint.exit
  %40 = phi i32 [ %31, %nsvg__addPoint.exit ], [ %.pre30, %33 ]
  %41 = phi ptr [ %.pre.i18, %nsvg__addPoint.exit ], [ %39, %33 ]
  %42 = shl nsw i32 %40, 1
  %43 = sext i32 %42 to i64
  %44 = getelementptr inbounds float, ptr %41, i64 %43
  store float %3, ptr %44, align 4, !tbaa !28
  %45 = or disjoint i32 %42, 1
  %46 = sext i32 %45 to i64
  %47 = getelementptr inbounds float, ptr %41, i64 %46
  store float %4, ptr %47, align 4, !tbaa !28
  %48 = add nsw i32 %40, 1
  store i32 %48, ptr %8, align 8, !tbaa !84
  br label %nsvg__addPoint.exit19

nsvg__addPoint.exit19:                            ; preds = %33, %._crit_edge.i16
  %.pre.i28 = phi ptr [ null, %33 ], [ %41, %._crit_edge.i16 ]
  %49 = phi i32 [ %.pre30, %33 ], [ %48, %._crit_edge.i16 ]
  %50 = load i32, ptr %12, align 4, !tbaa !87
  %.not.i20 = icmp slt i32 %49, %50
  br i1 %.not.i20, label %._crit_edge.i26, label %51

51:                                               ; preds = %nsvg__addPoint.exit19
  %.not16.i21 = icmp eq i32 %50, 0
  %52 = shl nsw i32 %50, 1
  %spec.select.i22 = select i1 %.not16.i21, i32 8, i32 %52
  store i32 %spec.select.i22, ptr %12, align 4, !tbaa !87
  %53 = getelementptr inbounds nuw i8, ptr %0, i64 39944
  %54 = shl nsw i32 %spec.select.i22, 1
  %55 = sext i32 %54 to i64
  %56 = shl nsw i64 %55, 2
  %57 = tail call ptr @realloc(ptr noundef %.pre.i28, i64 noundef %56) #33
  store ptr %57, ptr %53, align 8, !tbaa !80
  %.not17.i23 = icmp eq ptr %57, null
  br i1 %.not17.i23, label %nsvg__addPoint.exit29, label %._crit_edge18.i24

._crit_edge18.i24:                                ; preds = %51
  %.pre19.i25 = load i32, ptr %8, align 8, !tbaa !84
  br label %._crit_edge.i26

._crit_edge.i26:                                  ; preds = %nsvg__addPoint.exit19, %._crit_edge18.i24
  %58 = phi i32 [ %.pre19.i25, %._crit_edge18.i24 ], [ %49, %nsvg__addPoint.exit19 ]
  %59 = phi ptr [ %57, %._crit_edge18.i24 ], [ %.pre.i28, %nsvg__addPoint.exit19 ]
  %60 = shl nsw i32 %58, 1
  %61 = sext i32 %60 to i64
  %62 = getelementptr inbounds float, ptr %59, i64 %61
  store float %5, ptr %62, align 4, !tbaa !28
  %63 = or disjoint i32 %60, 1
  %64 = sext i32 %63 to i64
  %65 = getelementptr inbounds float, ptr %59, i64 %64
  store float %6, ptr %65, align 4, !tbaa !28
  %66 = add nsw i32 %58, 1
  store i32 %66, ptr %8, align 8, !tbaa !84
  br label %nsvg__addPoint.exit29

nsvg__addPoint.exit29:                            ; preds = %._crit_edge.i26, %51, %7
  ret void
}